target datalayout = "e-m:e-p270:32:32-p271:32:32-p272:64:64-i64:64-i128:128-f80:128-n8:16:32:64-S128"
target triple = "x86_64-pc-linux-gnu"

@s_Truths6 = internal global [6 x i64] [i64 -6148914691236517206, i64 -3689348814741910324, i64 -1085102592571150096, i64 -71777214294589696, i64 -281470681808896, i64 -4294967296], align 16
@s_Truths6Neg = internal global [6 x i64] [i64 6148914691236517205, i64 3689348814741910323, i64 1085102592571150095, i64 71777214294589695, i64 281470681808895, i64 4294967295], align 16

; Function Attrs: inlinehint nounwind uwtable
define internal i32 @Abc_LitNotCond(i32 noundef %0, i32 noundef %1) #2 {
  %3 = alloca i32, align 4
  %4 = alloca i32, align 4
  store i32 %0, ptr %3, align 4, !tbaa !8
  store i32 %1, ptr %4, align 4, !tbaa !8
  %5 = load i32, ptr %3, align 4, !tbaa !8
  %6 = load i32, ptr %4, align 4, !tbaa !8
  %7 = icmp sgt i32 %6, 0
  %8 = zext i1 %7 to i32
  %9 = xor i32 %5, %8
  ret i32 %9
}

; Function Attrs: inlinehint nounwind uwtable
define internal i32 @Abc_LitNot(i32 noundef %0) #2 {
  %2 = alloca i32, align 4
  store i32 %0, ptr %2, align 4, !tbaa !8
  %3 = load i32, ptr %2, align 4, !tbaa !8
  %4 = xor i32 %3, 1
  ret i32 %4
}

; Function Attrs: inlinehint nounwind uwtable
define internal i32 @Gia_ManAppendMux(ptr noundef %0, i32 noundef %1, i32 noundef %2, i32 noundef %3) #2 {
  %5 = alloca ptr, align 8
  %6 = alloca i32, align 4
  %7 = alloca i32, align 4
  %8 = alloca i32, align 4
  %9 = alloca i32, align 4
  %10 = alloca i32, align 4
  store ptr %0, ptr %5, align 8, !tbaa !3
  store i32 %1, ptr %6, align 4, !tbaa !8
  store i32 %2, ptr %7, align 4, !tbaa !8
  store i32 %3, ptr %8, align 4, !tbaa !8
  call void @llvm.lifetime.start.p0(i64 4, ptr %9) #13
  %11 = load ptr, ptr %5, align 8, !tbaa !3
  %12 = load i32, ptr %6, align 4, !tbaa !8
  %13 = call i32 @Abc_LitNot(i32 noundef %12)
  %14 = load i32, ptr %8, align 4, !tbaa !8
  %15 = call i32 @Gia_ManAppendAnd(ptr noundef %11, i32 noundef %13, i32 noundef %14)
  store i32 %15, ptr %9, align 4, !tbaa !8
  call void @llvm.lifetime.start.p0(i64 4, ptr %10) #13
  %16 = load ptr, ptr %5, align 8, !tbaa !3
  %17 = load i32, ptr %6, align 4, !tbaa !8
  %18 = load i32, ptr %7, align 4, !tbaa !8
  %19 = call i32 @Gia_ManAppendAnd(ptr noundef %16, i32 noundef %17, i32 noundef %18)
  store i32 %19, ptr %10, align 4, !tbaa !8
  %20 = load ptr, ptr %5, align 8, !tbaa !3
  %21 = load i32, ptr %9, align 4, !tbaa !8
  %22 = call i32 @Abc_LitNot(i32 noundef %21)
  %23 = load i32, ptr %10, align 4, !tbaa !8
  %24 = call i32 @Abc_LitNot(i32 noundef %23)
  %25 = call i32 @Gia_ManAppendAnd(ptr noundef %20, i32 noundef %22, i32 noundef %24)
  %26 = call i32 @Abc_LitNotCond(i32 noundef %25, i32 noundef 1)
  call void @llvm.lifetime.end.p0(i64 4, ptr %10) #13
  call void @llvm.lifetime.end.p0(i64 4, ptr %9) #13
  ret i32 %26
}

; Function Attrs: inlinehint nounwind uwtable
define internal i64 @Abc_Tt6Cofactor1(i64 noundef %0, i32 noundef %1) #2 {
  %3 = alloca i64, align 8
  %4 = alloca i32, align 4
  store i64 %0, ptr %3, align 8, !tbaa !12
  store i32 %1, ptr %4, align 4, !tbaa !8
  %5 = load i64, ptr %3, align 8, !tbaa !12
  %6 = load i32, ptr %4, align 4, !tbaa !8
  %7 = sext i32 %6 to i64
  %8 = getelementptr inbounds [6 x i64], ptr @s_Truths6, i64 0, i64 %7
  %9 = load i64, ptr %8, align 8, !tbaa !12
  %10 = and i64 %5, %9
  %11 = load i64, ptr %3, align 8, !tbaa !12
  %12 = load i32, ptr %4, align 4, !tbaa !8
  %13 = sext i32 %12 to i64
  %14 = getelementptr inbounds [6 x i64], ptr @s_Truths6, i64 0, i64 %13
  %15 = load i64, ptr %14, align 8, !tbaa !12
  %16 = and i64 %11, %15
  %17 = load i32, ptr %4, align 4, !tbaa !8
  %18 = shl i32 1, %17
  %19 = zext i32 %18 to i64
  %20 = lshr i64 %16, %19
  %21 = or i64 %10, %20
  ret i64 %21
}

; Function Attrs: inlinehint nounwind uwtable
define internal i64 @Abc_Tt6Cofactor0(i64 noundef %0, i32 noundef %1) #2 {
  %3 = alloca i64, align 8
  %4 = alloca i32, align 4
  store i64 %0, ptr %3, align 8, !tbaa !12
  store i32 %1, ptr %4, align 4, !tbaa !8
  %5 = load i64, ptr %3, align 8, !tbaa !12
  %6 = load i32, ptr %4, align 4, !tbaa !8
  %7 = sext i32 %6 to i64
  %8 = getelementptr inbounds [6 x i64], ptr @s_Truths6Neg, i64 0, i64 %7
  %9 = load i64, ptr %8, align 8, !tbaa !12
  %10 = and i64 %5, %9
  %11 = load i64, ptr %3, align 8, !tbaa !12
  %12 = load i32, ptr %4, align 4, !tbaa !8
  %13 = sext i32 %12 to i64
  %14 = getelementptr inbounds [6 x i64], ptr @s_Truths6Neg, i64 0, i64 %13
  %15 = load i64, ptr %14, align 8, !tbaa !12
  %16 = and i64 %11, %15
  %17 = load i32, ptr %4, align 4, !tbaa !8
  %18 = shl i32 1, %17
  %19 = zext i32 %18 to i64
  %20 = shl i64 %16, %19
  %21 = or i64 %10, %20
  ret i64 %21
}

; Function Attrs: inlinehint nounwind uwtable
define internal i32 @Abc_Tt6HasVar(i64 noundef %0, i32 noundef %1) #2 {
  %3 = alloca i64, align 8
  %4 = alloca i32, align 4
  store i64 %0, ptr %3, align 8, !tbaa !12
  store i32 %1, ptr %4, align 4, !tbaa !8
  %5 = load i64, ptr %3, align 8, !tbaa !12
  %6 = load i32, ptr %4, align 4, !tbaa !8
  %7 = shl i32 1, %6
  %8 = zext i32 %7 to i64
  %9 = lshr i64 %5, %8
  %10 = load i32, ptr %4, align 4, !tbaa !8
  %11 = sext i32 %10 to i64
  %12 = getelementptr inbounds [6 x i64], ptr @s_Truths6Neg, i64 0, i64 %11
  %13 = load i64, ptr %12, align 8, !tbaa !12
  %14 = and i64 %9, %13
  %15 = load i64, ptr %3, align 8, !tbaa !12
  %16 = load i32, ptr %4, align 4, !tbaa !8
  %17 = sext i32 %16 to i64
  %18 = getelementptr inbounds [6 x i64], ptr @s_Truths6Neg, i64 0, i64 %17
  %19 = load i64, ptr %18, align 8, !tbaa !12
  %20 = and i64 %15, %19
  %21 = icmp ne i64 %14, %20
  %22 = zext i1 %21 to i32
  ret i32 %22
}

; Function Attrs: nounwind uwtable
define i32 @Gia_Truth6ToGia(ptr noundef %0, ptr noundef %1, i32 noundef %2, i64 noundef %3, i32 noundef %4) #0 {
  %6 = alloca i32, align 4
  %7 = alloca ptr, align 8
  %8 = alloca ptr, align 8
  %9 = alloca i32, align 4
  %10 = alloca i64, align 8
  %11 = alloca i32, align 4
  %12 = alloca i32, align 4
  %13 = alloca i32, align 4
  %14 = alloca i32, align 4
  %15 = alloca i32, align 4
  store ptr %0, ptr %7, align 8, !tbaa !3
  store ptr %1, ptr %8, align 8, !tbaa !34
  store i32 %2, ptr %9, align 4, !tbaa !8
  store i64 %3, ptr %10, align 8, !tbaa !12
  store i32 %4, ptr %11, align 4, !tbaa !8
  call void @llvm.lifetime.start.p0(i64 4, ptr %12) #13
  call void @llvm.lifetime.start.p0(i64 4, ptr %13) #13
  call void @llvm.lifetime.start.p0(i64 4, ptr %14) #13
  %16 = load i64, ptr %10, align 8, !tbaa !12
  %17 = icmp eq i64 %16, 0
  br i1 %17, label %18, label %19

18:                                               ; preds = %5
  store i32 0, ptr %6, align 4
  store i32 1, ptr %15, align 4
  br label %79

19:                                               ; preds = %5
  %20 = load i64, ptr %10, align 8, !tbaa !12
  %21 = xor i64 %20, -1
  %22 = icmp eq i64 %21, 0
  br i1 %22, label %23, label %24

23:                                               ; preds = %19
  store i32 1, ptr %6, align 4
  store i32 1, ptr %15, align 4
  br label %79

24:                                               ; preds = %19
  %25 = load i32, ptr %9, align 4, !tbaa !8
  %26 = sub nsw i32 %25, 1
  store i32 %26, ptr %12, align 4, !tbaa !8
  br label %27

27:                                               ; preds = %37, %24
  %28 = load i32, ptr %12, align 4, !tbaa !8
  %29 = icmp sge i32 %28, 0
  br i1 %29, label %30, label %40

30:                                               ; preds = %27
  %31 = load i64, ptr %10, align 8, !tbaa !12
  %32 = load i32, ptr %12, align 4, !tbaa !8
  %33 = call i32 @Abc_Tt6HasVar(i64 noundef %31, i32 noundef %32)
  %34 = icmp ne i32 %33, 0
  br i1 %34, label %35, label %36

35:                                               ; preds = %30
  br label %40

36:                                               ; preds = %30
  br label %37

37:                                               ; preds = %36
  %38 = load i32, ptr %12, align 4, !tbaa !8
  %39 = add nsw i32 %38, -1
  store i32 %39, ptr %12, align 4, !tbaa !8
  br label %27, !llvm.loop !37

40:                                               ; preds = %35, %27
  %41 = load ptr, ptr %7, align 8, !tbaa !3
  %42 = load ptr, ptr %8, align 8, !tbaa !34
  %43 = load i32, ptr %12, align 4, !tbaa !8
  %44 = load i64, ptr %10, align 8, !tbaa !12
  %45 = load i32, ptr %12, align 4, !tbaa !8
  %46 = call i64 @Abc_Tt6Cofactor0(i64 noundef %44, i32 noundef %45)
  %47 = load i32, ptr %11, align 4, !tbaa !8
  %48 = call i32 @Gia_Truth6ToGia(ptr noundef %41, ptr noundef %42, i32 noundef %43, i64 noundef %46, i32 noundef %47)
  store i32 %48, ptr %13, align 4, !tbaa !8
  %49 = load ptr, ptr %7, align 8, !tbaa !3
  %50 = load ptr, ptr %8, align 8, !tbaa !34
  %51 = load i32, ptr %12, align 4, !tbaa !8
  %52 = load i64, ptr %10, align 8, !tbaa !12
  %53 = load i32, ptr %12, align 4, !tbaa !8
  %54 = call i64 @Abc_Tt6Cofactor1(i64 noundef %52, i32 noundef %53)
  %55 = load i32, ptr %11, align 4, !tbaa !8
  %56 = call i32 @Gia_Truth6ToGia(ptr noundef %49, ptr noundef %50, i32 noundef %51, i64 noundef %54, i32 noundef %55)
  store i32 %56, ptr %14, align 4, !tbaa !8
  %57 = load i32, ptr %11, align 4, !tbaa !8
  %58 = icmp ne i32 %57, 0
  br i1 %58, label %59, label %69

59:                                               ; preds = %40
  %60 = load ptr, ptr %7, align 8, !tbaa !3
  %61 = load ptr, ptr %8, align 8, !tbaa !34
  %62 = load i32, ptr %12, align 4, !tbaa !8
  %63 = sext i32 %62 to i64
  %64 = getelementptr inbounds i32, ptr %61, i64 %63
  %65 = load i32, ptr %64, align 4, !tbaa !8
  %66 = load i32, ptr %14, align 4, !tbaa !8
  %67 = load i32, ptr %13, align 4, !tbaa !8
  %68 = call i32 @Gia_ManHashMux(ptr noundef %60, i32 noundef %65, i32 noundef %66, i32 noundef %67)
  store i32 %68, ptr %6, align 4
  store i32 1, ptr %15, align 4
  br label %79

69:                                               ; preds = %40
  %70 = load ptr, ptr %7, align 8, !tbaa !3
  %71 = load ptr, ptr %8, align 8, !tbaa !34
  %72 = load i32, ptr %12, align 4, !tbaa !8
  %73 = sext i32 %72 to i64
  %74 = getelementptr inbounds i32, ptr %71, i64 %73
  %75 = load i32, ptr %74, align 4, !tbaa !8
  %76 = load i32, ptr %14, align 4, !tbaa !8
  %77 = load i32, ptr %13, align 4, !tbaa !8
  %78 = call i32 @Gia_ManAppendMux(ptr noundef %70, i32 noundef %75, i32 noundef %76, i32 noundef %77)
  store i32 %78, ptr %6, align 4
  store i32 1, ptr %15, align 4
  br label %79

79:                                               ; preds = %69, %59, %23, %18
  call void @llvm.lifetime.end.p0(i64 4, ptr %14) #13
  call void @llvm.lifetime.end.p0(i64 4, ptr %13) #13
  call void @llvm.lifetime.end.p0(i64 4, ptr %12) #13
  %80 = load i32, ptr %6, align 4
  ret i32 %80
}