; Function Attrs: nounwind uwtable
define i32 @Gia_Truth6ToGia(ptr noundef %0, ptr noundef %1, i32 noundef %2, i64 noundef %3, i32 noundef %4) local_unnamed_addr #2 {
  switch i64 %3, label %.preheader.preheader [
    i64 0, label %45
    i64 -1, label %8
  ]

.preheader.preheader:                             ; preds = %5
  %6 = zext i32 %2 to i64
  %smin = tail call i32 @llvm.smin.i32(i32 %2, i32 0)
  %7 = add i32 %smin, -1
  br label %.preheader

8:                                                ; preds = %5
  br label %45

.preheader:                                       ; preds = %.preheader.preheader, %11
  %indvars.iv = phi i64 [ %6, %.preheader.preheader ], [ %indvars.iv.next, %11 ]
  %9 = trunc nuw i64 %indvars.iv to i32
  %10 = icmp sgt i32 %9, 0
  br i1 %10, label %11, label %.preheader._crit_edge

.preheader._crit_edge:                            ; preds = %.preheader
  %.pre = shl nuw nsw i32 1, %7
  %.pre35 = zext nneg i32 %.pre to i64
  br label %split

11:                                               ; preds = %.preheader
  %indvars.iv.next = add nsw i64 %indvars.iv, -1
  %indvars = trunc i64 %indvars.iv.next to i32
  %12 = shl nuw i32 1, %indvars
  %13 = zext nneg i32 %12 to i64
  %14 = lshr i64 %3, %13
  %15 = and i64 %indvars.iv.next, 4294967295
  %16 = getelementptr inbounds nuw [6 x i64], ptr @s_Truths6Neg, i64 0, i64 %15
  %17 = load i64, ptr %16, align 8, !tbaa !28
  %18 = xor i64 %14, %3
  %19 = and i64 %17, %18
  %.not33 = icmp eq i64 %19, 0
  br i1 %.not33, label %.preheader, label %split, !llvm.loop !34

split:                                            ; preds = %11, %.preheader._crit_edge
  %.pre-phi36 = phi i64 [ %.pre35, %.preheader._crit_edge ], [ %13, %11 ]
  %.030.lcssa = phi i32 [ %7, %.preheader._crit_edge ], [ %indvars, %11 ]
  %20 = sext i32 %.030.lcssa to i64
  %21 = getelementptr inbounds [6 x i64], ptr @s_Truths6Neg, i64 0, i64 %20
  %22 = load i64, ptr %21, align 8, !tbaa !28
  %23 = and i64 %22, %3
  %24 = shl i64 %23, %.pre-phi36
  %25 = or i64 %24, %23
  %26 = tail call i32 @Gia_Truth6ToGia(ptr noundef %0, ptr noundef %1, i32 noundef %.030.lcssa, i64 noundef %25, i32 noundef %4)
  %27 = getelementptr inbounds [6 x i64], ptr @s_Truth6, i64 0, i64 %20
  %28 = load i64, ptr %27, align 8, !tbaa !28
  %29 = and i64 %28, %3
  %30 = lshr i64 %29, %.pre-phi36
  %31 = or i64 %30, %29
  %32 = tail call i32 @Gia_Truth6ToGia(ptr noundef %0, ptr noundef %1, i32 noundef %.030.lcssa, i64 noundef %31, i32 noundef %4)
  %.not32 = icmp eq i32 %4, 0
  %33 = getelementptr inbounds i32, ptr %1, i64 %20
  %34 = load i32, ptr %33, align 4, !tbaa !31
  br i1 %.not32, label %37, label %35

35:                                               ; preds = %split
  %36 = tail call i32 @Gia_ManHashMux(ptr noundef %0, i32 noundef %34, i32 noundef %32, i32 noundef %26) #23
  br label %45

37:                                               ; preds = %split
  %38 = xor i32 %34, 1
  %39 = tail call fastcc i32 @Gia_ManAppendAnd(ptr noundef %0, i32 noundef %38, i32 noundef %26)
  %40 = tail call fastcc i32 @Gia_ManAppendAnd(ptr noundef %0, i32 noundef %34, i32 noundef %32)
  %41 = xor i32 %39, 1
  %42 = xor i32 %40, 1
  %43 = tail call fastcc i32 @Gia_ManAppendAnd(ptr noundef %0, i32 noundef %41, i32 noundef %42)
  %44 = xor i32 %43, 1
  br label %45

45:                                               ; preds = %5, %37, %35, %8
  %.0 = phi i32 [ 1, %8 ], [ %36, %35 ], [ %44, %37 ], [ 0, %5 ]
  ret i32 %.0
}